; Function Attrs: null_pointer_is_valid sspstrong uwtable
define internal void @dtap_user_zone_reject(ptr noundef %0, ptr noundef %1, ptr noundef %2, i32 noundef %3, i32 noundef %4, ptr noundef %5) #1 {
  %7 = tail call fastcc zeroext i16 @elem_tlv(ptr noundef %0, ptr noundef %1, ptr noundef %2, i32 noundef 81, i32 noundef %3, ptr noundef nonnull @.str.282, ptr noundef %5)
  %8 = zext i16 %7 to i32
  %9 = icmp eq i32 %4, %8
  br i1 %9, label %14, label %10

10:                                               ; preds = %6
  %11 = sub i32 %4, %8
  %12 = add i32 %3, %8
  %13 = tail call ptr @proto_tree_add_expert(ptr noundef %2, ptr noundef %1, ptr noundef nonnull @ei_ansi_a_extraneous_data, ptr noundef %0, i32 noundef %12, i32 noundef %11)
  br label %14

14:                                               ; preds = %6, %10
  ret void
}